target datalayout = "e-m:e-p270:32:32-p271:32:32-p272:64:64-i64:64-i128:128-f80:128-n8:16:32:64-S128"
target triple = "x86_64-pc-linux-gnu"

%struct.AppendState = type { %struct.PlanState, ptr, i32, i32, i8, ptr, i32, ptr, ptr, i32, i8, i32, ptr, ptr, i32, ptr, i64, ptr, i8, ptr, ptr, ptr }
%struct.PlanState = type { i32, ptr, ptr, ptr, ptr, ptr, ptr, ptr, ptr, ptr, ptr, ptr, ptr, ptr, ptr, ptr, ptr, ptr, i8, ptr, ptr, ptr, ptr, ptr, i8, i8, i8, i8, i8, i8, i8, i8 }
%struct.ParallelAppendState = type { %struct.LWLock, i32, [0 x i8] }
%struct.LWLock = type { i16, %struct.pg_atomic_uint32, %struct.proclist_head }
%struct.pg_atomic_uint32 = type { i32 }
%struct.proclist_head = type { i32, i32 }

; Function Attrs: nounwind uwtable
define internal void @mark_invalid_subplans_as_finished(ptr noundef %0) #0 {
  %2 = alloca ptr, align 8
  %3 = alloca i32, align 4
  %4 = alloca i32, align 4
  store ptr %0, ptr %2, align 8
  call void @llvm.lifetime.start.p0(i64 4, ptr %3) #6
  %5 = load ptr, ptr %2, align 8
  %6 = getelementptr inbounds nuw %struct.AppendState, ptr %5, i32 0, i32 19
  %7 = load ptr, ptr %6, align 8
  %8 = call i32 @bms_num_members(ptr noundef %7)
  %9 = load ptr, ptr %2, align 8
  %10 = getelementptr inbounds nuw %struct.AppendState, ptr %9, i32 0, i32 2
  %11 = load i32, ptr %10, align 8
  %12 = icmp eq i32 %8, %11
  br i1 %12, label %13, label %14

13:                                               ; preds = %1
  store i32 1, ptr %4, align 4
  br label %40

14:                                               ; preds = %1
  store i32 0, ptr %3, align 4
  br label %15

15:                                               ; preds = %36, %14
  %16 = load i32, ptr %3, align 4
  %17 = load ptr, ptr %2, align 8
  %18 = getelementptr inbounds nuw %struct.AppendState, ptr %17, i32 0, i32 2
  %19 = load i32, ptr %18, align 8
  %20 = icmp slt i32 %16, %19
  br i1 %20, label %21, label %39

21:                                               ; preds = %15
  %22 = load i32, ptr %3, align 4
  %23 = load ptr, ptr %2, align 8
  %24 = getelementptr inbounds nuw %struct.AppendState, ptr %23, i32 0, i32 19
  %25 = load ptr, ptr %24, align 8
  %26 = call zeroext i1 @bms_is_member(i32 noundef %22, ptr noundef %25)
  br i1 %26, label %35, label %27

27:                                               ; preds = %21
  %28 = load ptr, ptr %2, align 8
  %29 = getelementptr inbounds nuw %struct.AppendState, ptr %28, i32 0, i32 15
  %30 = load ptr, ptr %29, align 8
  %31 = getelementptr inbounds nuw %struct.ParallelAppendState, ptr %30, i32 0, i32 2
  %32 = load i32, ptr %3, align 4
  %33 = sext i32 %32 to i64
  %34 = getelementptr inbounds [0 x i8], ptr %31, i64 0, i64 %33
  store i8 1, ptr %34, align 1
  br label %35

35:                                               ; preds = %27, %21
  br label %36

36:                                               ; preds = %35
  %37 = load i32, ptr %3, align 4
  %38 = add i32 %37, 1
  store i32 %38, ptr %3, align 4
  br label %15, !llvm.loop !19

39:                                               ; preds = %15
  store i32 0, ptr %4, align 4
  br label %40

40:                                               ; preds = %39, %13
  call void @llvm.lifetime.end.p0(i64 4, ptr %3) #6
  %41 = load i32, ptr %4, align 4
  switch i32 %41, label %43 [
    i32 0, label %42
    i32 1, label %42
  ]

42:                                               ; preds = %40, %40
  ret void

43:                                               ; preds = %40
  unreachable
}

; Function Attrs: nounwind uwtable
define internal zeroext i1 @choose_next_subplan_for_leader(ptr noundef %0) #0 {
  %2 = alloca i1, align 1
  %3 = alloca ptr, align 8
  %4 = alloca ptr, align 8
  %5 = alloca i32, align 4
  store ptr %0, ptr %3, align 8
  call void @llvm.lifetime.start.p0(i64 8, ptr %4) #6
  %6 = load ptr, ptr %3, align 8
  %7 = getelementptr inbounds nuw %struct.AppendState, ptr %6, i32 0, i32 15
  %8 = load ptr, ptr %7, align 8
  store ptr %8, ptr %4, align 8
  %9 = load ptr, ptr %4, align 8
  %10 = getelementptr inbounds nuw %struct.ParallelAppendState, ptr %9, i32 0, i32 0
  %11 = call zeroext i1 @LWLockAcquire(ptr noundef %10, i32 noundef 0)
  %12 = load ptr, ptr %3, align 8
  %13 = getelementptr inbounds nuw %struct.AppendState, ptr %12, i32 0, i32 3
  %14 = load i32, ptr %13, align 4
  %15 = icmp ne i32 %14, -1
  br i1 %15, label %16, label %26

16:                                               ; preds = %1
  %17 = load ptr, ptr %3, align 8
  %18 = getelementptr inbounds nuw %struct.AppendState, ptr %17, i32 0, i32 15
  %19 = load ptr, ptr %18, align 8
  %20 = getelementptr inbounds nuw %struct.ParallelAppendState, ptr %19, i32 0, i32 2
  %21 = load ptr, ptr %3, align 8
  %22 = getelementptr inbounds nuw %struct.AppendState, ptr %21, i32 0, i32 3
  %23 = load i32, ptr %22, align 4
  %24 = sext i32 %23 to i64
  %25 = getelementptr inbounds [0 x i8], ptr %20, i64 0, i64 %24
  store i8 1, ptr %25, align 1
  br label %48

26:                                               ; preds = %1
  %27 = load ptr, ptr %3, align 8
  %28 = getelementptr inbounds nuw %struct.AppendState, ptr %27, i32 0, i32 2
  %29 = load i32, ptr %28, align 8
  %30 = sub i32 %29, 1
  %31 = load ptr, ptr %3, align 8
  %32 = getelementptr inbounds nuw %struct.AppendState, ptr %31, i32 0, i32 3
  store i32 %30, ptr %32, align 4
  %33 = load ptr, ptr %3, align 8
  %34 = getelementptr inbounds nuw %struct.AppendState, ptr %33, i32 0, i32 18
  %35 = load i8, ptr %34, align 8, !range !4, !noundef !5
  %36 = trunc i8 %35 to i1
  br i1 %36, label %47, label %37

37:                                               ; preds = %26
  %38 = load ptr, ptr %3, align 8
  %39 = getelementptr inbounds nuw %struct.AppendState, ptr %38, i32 0, i32 17
  %40 = load ptr, ptr %39, align 8
  %41 = call ptr @ExecFindMatchingSubPlans(ptr noundef %40, i1 noundef zeroext false, ptr noundef null)
  %42 = load ptr, ptr %3, align 8
  %43 = getelementptr inbounds nuw %struct.AppendState, ptr %42, i32 0, i32 19
  store ptr %41, ptr %43, align 8
  %44 = load ptr, ptr %3, align 8
  %45 = getelementptr inbounds nuw %struct.AppendState, ptr %44, i32 0, i32 18
  store i8 1, ptr %45, align 8
  %46 = load ptr, ptr %3, align 8
  call void @mark_invalid_subplans_as_finished(ptr noundef %46)
  br label %47

47:                                               ; preds = %37, %26
  br label %48

48:                                               ; preds = %47, %16
  br label %49

49:                                               ; preds = %71, %48
  %50 = load ptr, ptr %4, align 8
  %51 = getelementptr inbounds nuw %struct.ParallelAppendState, ptr %50, i32 0, i32 2
  %52 = load ptr, ptr %3, align 8
  %53 = getelementptr inbounds nuw %struct.AppendState, ptr %52, i32 0, i32 3
  %54 = load i32, ptr %53, align 4
  %55 = sext i32 %54 to i64
  %56 = getelementptr inbounds [0 x i8], ptr %51, i64 0, i64 %55
  %57 = load i8, ptr %56, align 1, !range !4, !noundef !5
  %58 = trunc i8 %57 to i1
  br i1 %58, label %59, label %76

59:                                               ; preds = %49
  %60 = load ptr, ptr %3, align 8
  %61 = getelementptr inbounds nuw %struct.AppendState, ptr %60, i32 0, i32 3
  %62 = load i32, ptr %61, align 4
  %63 = icmp eq i32 %62, 0
  br i1 %63, label %64, label %71

64:                                               ; preds = %59
  %65 = load ptr, ptr %4, align 8
  %66 = getelementptr inbounds nuw %struct.ParallelAppendState, ptr %65, i32 0, i32 1
  store i32 -1, ptr %66, align 4
  %67 = load ptr, ptr %3, align 8
  %68 = getelementptr inbounds nuw %struct.AppendState, ptr %67, i32 0, i32 3
  store i32 -1, ptr %68, align 4
  %69 = load ptr, ptr %4, align 8
  %70 = getelementptr inbounds nuw %struct.ParallelAppendState, ptr %69, i32 0, i32 0
  call void @LWLockRelease(ptr noundef %70)
  store i1 false, ptr %2, align 1
  store i32 1, ptr %5, align 4
  br label %97

71:                                               ; preds = %59
  %72 = load ptr, ptr %3, align 8
  %73 = getelementptr inbounds nuw %struct.AppendState, ptr %72, i32 0, i32 3
  %74 = load i32, ptr %73, align 4
  %75 = add i32 %74, -1
  store i32 %75, ptr %73, align 4
  br label %49, !llvm.loop !12

76:                                               ; preds = %49
  %77 = load ptr, ptr %3, align 8
  %78 = getelementptr inbounds nuw %struct.AppendState, ptr %77, i32 0, i32 3
  %79 = load i32, ptr %78, align 4
  %80 = load ptr, ptr %3, align 8
  %81 = getelementptr inbounds nuw %struct.AppendState, ptr %80, i32 0, i32 14
  %82 = load i32, ptr %81, align 8
  %83 = icmp slt i32 %79, %82
  br i1 %83, label %84, label %94

84:                                               ; preds = %76
  %85 = load ptr, ptr %3, align 8
  %86 = getelementptr inbounds nuw %struct.AppendState, ptr %85, i32 0, i32 15
  %87 = load ptr, ptr %86, align 8
  %88 = getelementptr inbounds nuw %struct.ParallelAppendState, ptr %87, i32 0, i32 2
  %89 = load ptr, ptr %3, align 8
  %90 = getelementptr inbounds nuw %struct.AppendState, ptr %89, i32 0, i32 3
  %91 = load i32, ptr %90, align 4
  %92 = sext i32 %91 to i64
  %93 = getelementptr inbounds [0 x i8], ptr %88, i64 0, i64 %92
  store i8 1, ptr %93, align 1
  br label %94

94:                                               ; preds = %84, %76
  %95 = load ptr, ptr %4, align 8
  %96 = getelementptr inbounds nuw %struct.ParallelAppendState, ptr %95, i32 0, i32 0
  call void @LWLockRelease(ptr noundef %96)
  store i1 true, ptr %2, align 1
  store i32 1, ptr %5, align 4
  br label %97

97:                                               ; preds = %94, %64
  call void @llvm.lifetime.end.p0(i64 8, ptr %4) #6
  %98 = load i1, ptr %2, align 1
  ret i1 %98
}