; Function Attrs: nounwind uwtable
define internal noundef zeroext i1 @choose_next_subplan_for_leader(ptr noundef captures(none) %0) #0 {
  %2 = getelementptr inbounds nuw i8, ptr %0, i64 296
  %3 = load ptr, ptr %2, align 8
  %4 = tail call zeroext i1 @LWLockAcquire(ptr noundef %3, i32 noundef 0) #6
  %5 = getelementptr inbounds nuw i8, ptr %0, i64 212
  %6 = load i32, ptr %5, align 4
  %.not = icmp eq i32 %6, -1
  br i1 %.not, label %12, label %7

7:                                                ; preds = %1
  %8 = load ptr, ptr %2, align 8
  %9 = getelementptr inbounds nuw i8, ptr %8, i64 20
  %10 = sext i32 %6 to i64
  %11 = getelementptr inbounds [0 x i8], ptr %9, i64 0, i64 %10
  store i8 1, ptr %11, align 1
  br label %mark_invalid_subplans_as_finished.exit

12:                                               ; preds = %1
  %13 = getelementptr inbounds nuw i8, ptr %0, i64 208
  %14 = load i32, ptr %13, align 8
  %15 = add i32 %14, -1
  store i32 %15, ptr %5, align 4
  %16 = getelementptr inbounds nuw i8, ptr %0, i64 320
  %17 = load i8, ptr %16, align 8, !range !4, !noundef !5
  %18 = trunc nuw i8 %17 to i1
  br i1 %18, label %mark_invalid_subplans_as_finished.exit, label %19

19:                                               ; preds = %12
  %20 = getelementptr inbounds nuw i8, ptr %0, i64 312
  %21 = load ptr, ptr %20, align 8
  %22 = tail call ptr @ExecFindMatchingSubPlans(ptr noundef %21, i1 noundef zeroext false, ptr noundef null) #6
  %23 = getelementptr inbounds nuw i8, ptr %0, i64 328
  store ptr %22, ptr %23, align 8
  store i8 1, ptr %16, align 8
  %24 = tail call i32 @bms_num_members(ptr noundef %22) #6
  %25 = load i32, ptr %13, align 8
  %26 = icmp ne i32 %24, %25
  %27 = icmp sgt i32 %25, 0
  %or.cond.i = and i1 %26, %27
  br i1 %or.cond.i, label %.lr.ph.i, label %mark_invalid_subplans_as_finished.exit

.lr.ph.i:                                         ; preds = %19, %35
  %indvars.iv.i = phi i64 [ %indvars.iv.next.i, %35 ], [ 0, %19 ]
  %28 = load ptr, ptr %23, align 8
  %29 = trunc nuw nsw i64 %indvars.iv.i to i32
  %30 = tail call zeroext i1 @bms_is_member(i32 noundef %29, ptr noundef %28) #6
  br i1 %30, label %35, label %31

31:                                               ; preds = %.lr.ph.i
  %32 = load ptr, ptr %2, align 8
  %33 = getelementptr inbounds nuw i8, ptr %32, i64 20
  %34 = getelementptr inbounds nuw [0 x i8], ptr %33, i64 0, i64 %indvars.iv.i
  store i8 1, ptr %34, align 1
  br label %35

35:                                               ; preds = %31, %.lr.ph.i
  %indvars.iv.next.i = add nuw nsw i64 %indvars.iv.i, 1
  %36 = load i32, ptr %13, align 8
  %37 = sext i32 %36 to i64
  %38 = icmp slt i64 %indvars.iv.next.i, %37
  br i1 %38, label %.lr.ph.i, label %mark_invalid_subplans_as_finished.exit, !llvm.loop !16

mark_invalid_subplans_as_finished.exit:           ; preds = %35, %19, %12, %7
  %.pr = load i32, ptr %5, align 4
  %39 = getelementptr inbounds nuw i8, ptr %3, i64 20
  %40 = sext i32 %.pr to i64
  %41 = getelementptr inbounds [0 x i8], ptr %39, i64 0, i64 %40
  %42 = load i8, ptr %41, align 1, !range !4, !noundef !5
  %43 = trunc nuw i8 %42 to i1
  br i1 %43, label %.lr.ph, label %._crit_edge

.lr.ph:                                           ; preds = %mark_invalid_subplans_as_finished.exit, %48
  %44 = phi i32 [ %49, %48 ], [ %.pr, %mark_invalid_subplans_as_finished.exit ]
  %45 = icmp eq i32 %44, 0
  br i1 %45, label %46, label %48

46:                                               ; preds = %.lr.ph
  %47 = getelementptr inbounds nuw i8, ptr %3, i64 16
  store i32 -1, ptr %47, align 4
  store i32 -1, ptr %5, align 4
  br label %61

48:                                               ; preds = %.lr.ph
  %49 = add i32 %44, -1
  store i32 %49, ptr %5, align 4
  %50 = sext i32 %49 to i64
  %51 = getelementptr inbounds [0 x i8], ptr %39, i64 0, i64 %50
  %52 = load i8, ptr %51, align 1, !range !4, !noundef !5
  %53 = trunc nuw i8 %52 to i1
  br i1 %53, label %.lr.ph, label %._crit_edge, !llvm.loop !17

._crit_edge:                                      ; preds = %48, %mark_invalid_subplans_as_finished.exit
  %.lcssa30 = phi i32 [ %.pr, %mark_invalid_subplans_as_finished.exit ], [ %49, %48 ]
  %.lcssa28 = phi i64 [ %40, %mark_invalid_subplans_as_finished.exit ], [ %50, %48 ]
  %54 = getelementptr inbounds nuw i8, ptr %0, i64 288
  %55 = load i32, ptr %54, align 8
  %56 = icmp slt i32 %.lcssa30, %55
  br i1 %56, label %57, label %61

57:                                               ; preds = %._crit_edge
  %58 = load ptr, ptr %2, align 8
  %59 = getelementptr inbounds nuw i8, ptr %58, i64 20
  %60 = getelementptr inbounds [0 x i8], ptr %59, i64 0, i64 %.lcssa28
  store i8 1, ptr %60, align 1
  br label %61

61:                                               ; preds = %._crit_edge, %57, %46
  %.0 = phi i1 [ false, %46 ], [ true, %57 ], [ true, %._crit_edge ]
  tail call void @LWLockRelease(ptr noundef nonnull %3) #6
  ret i1 %.0
}